target datalayout = "e-m:e-p270:32:32-p271:32:32-p272:64:64-i64:64-i128:128-f80:128-n8:16:32:64-S128"
target triple = "x86_64-pc-linux-gnu"

%struct.avifImage = type { i32, i32, i32, i32, i32, i32, [3 x ptr], [3 x i32], i32, ptr, i32, i32, i32, %struct.avifRWData, i16, i16, i16, %struct.avifContentLightLevelInformationBox, i32, %struct.avifPixelAspectRatioBox, %struct.avifCleanApertureBox, %struct.avifImageRotation, %struct.avifImageMirror, %struct.avifRWData, %struct.avifRWData }
%struct.avifContentLightLevelInformationBox = type { i16, i16 }
%struct.avifPixelAspectRatioBox = type { i32, i32 }
%struct.avifCleanApertureBox = type { i32, i32, i32, i32, i32, i32, i32, i32 }
%struct.avifImageRotation = type { i8 }
%struct.avifImageMirror = type { i8 }
%struct.avifRWData = type { ptr, i64 }

; Function Attrs: nounwind uwtable
define hidden i32 @avifImageExtractExifOrientationToIrotImir(ptr noundef %0) #0 {
  %2 = alloca i32, align 4
  %3 = alloca ptr, align 8
  %4 = alloca i32, align 4
  %5 = alloca i64, align 8
  %6 = alloca i32, align 4
  %7 = alloca i8, align 1
  store ptr %0, ptr %3, align 8
  %8 = load ptr, ptr %3, align 8
  %9 = getelementptr inbounds nuw %struct.avifImage, ptr %8, i32 0, i32 18
  %10 = load i32, ptr %9, align 4
  %11 = and i32 %10, -13
  store i32 %11, ptr %4, align 4
  %12 = load ptr, ptr %3, align 8
  %13 = getelementptr inbounds nuw %struct.avifImage, ptr %12, i32 0, i32 23
  %14 = getelementptr inbounds nuw %struct.avifRWData, ptr %13, i32 0, i32 0
  %15 = load ptr, ptr %14, align 8
  %16 = load ptr, ptr %3, align 8
  %17 = getelementptr inbounds nuw %struct.avifImage, ptr %16, i32 0, i32 23
  %18 = getelementptr inbounds nuw %struct.avifRWData, ptr %17, i32 0, i32 1
  %19 = load i64, ptr %18, align 8
  %20 = call i32 @avifGetExifOrientationOffset(ptr noundef %15, i64 noundef %19, ptr noundef %5)
  store i32 %20, ptr %6, align 4
  %21 = load i32, ptr %6, align 4
  %22 = icmp ne i32 %21, 0
  br i1 %22, label %23, label %25

23:                                               ; preds = %1
  %24 = load i32, ptr %6, align 4
  store i32 %24, ptr %2, align 4
  br label %143

25:                                               ; preds = %1
  %26 = load i64, ptr %5, align 8
  %27 = load ptr, ptr %3, align 8
  %28 = getelementptr inbounds nuw %struct.avifImage, ptr %27, i32 0, i32 23
  %29 = getelementptr inbounds nuw %struct.avifRWData, ptr %28, i32 0, i32 1
  %30 = load i64, ptr %29, align 8
  %31 = icmp ult i64 %26, %30
  br i1 %31, label %32, label %133

32:                                               ; preds = %25
  %33 = load ptr, ptr %3, align 8
  %34 = getelementptr inbounds nuw %struct.avifImage, ptr %33, i32 0, i32 23
  %35 = getelementptr inbounds nuw %struct.avifRWData, ptr %34, i32 0, i32 0
  %36 = load ptr, ptr %35, align 8
  %37 = load i64, ptr %5, align 8
  %38 = getelementptr inbounds i8, ptr %36, i64 %37
  %39 = load i8, ptr %38, align 1
  store i8 %39, ptr %7, align 1
  %40 = load i8, ptr %7, align 1
  %41 = zext i8 %40 to i32
  switch i32 %41, label %131 [
    i32 1, label %42
    i32 2, label %52
    i32 3, label %63
    i32 4, label %74
    i32 5, label %85
    i32 6, label %97
    i32 7, label %108
    i32 8, label %120
  ]

42:                                               ; preds = %32
  %43 = load i32, ptr %4, align 4
  %44 = load ptr, ptr %3, align 8
  %45 = getelementptr inbounds nuw %struct.avifImage, ptr %44, i32 0, i32 18
  store i32 %43, ptr %45, align 4
  %46 = load ptr, ptr %3, align 8
  %47 = getelementptr inbounds nuw %struct.avifImage, ptr %46, i32 0, i32 21
  %48 = getelementptr inbounds nuw %struct.avifImageRotation, ptr %47, i32 0, i32 0
  store i8 0, ptr %48, align 8
  %49 = load ptr, ptr %3, align 8
  %50 = getelementptr inbounds nuw %struct.avifImage, ptr %49, i32 0, i32 22
  %51 = getelementptr inbounds nuw %struct.avifImageMirror, ptr %50, i32 0, i32 0
  store i8 0, ptr %51, align 1
  store i32 0, ptr %2, align 4
  br label %143

52:                                               ; preds = %32
  %53 = load i32, ptr %4, align 4
  %54 = or i32 %53, 8
  %55 = load ptr, ptr %3, align 8
  %56 = getelementptr inbounds nuw %struct.avifImage, ptr %55, i32 0, i32 18
  store i32 %54, ptr %56, align 4
  %57 = load ptr, ptr %3, align 8
  %58 = getelementptr inbounds nuw %struct.avifImage, ptr %57, i32 0, i32 21
  %59 = getelementptr inbounds nuw %struct.avifImageRotation, ptr %58, i32 0, i32 0
  store i8 0, ptr %59, align 8
  %60 = load ptr, ptr %3, align 8
  %61 = getelementptr inbounds nuw %struct.avifImage, ptr %60, i32 0, i32 22
  %62 = getelementptr inbounds nuw %struct.avifImageMirror, ptr %61, i32 0, i32 0
  store i8 1, ptr %62, align 1
  store i32 0, ptr %2, align 4
  br label %143

63:                                               ; preds = %32
  %64 = load i32, ptr %4, align 4
  %65 = or i32 %64, 4
  %66 = load ptr, ptr %3, align 8
  %67 = getelementptr inbounds nuw %struct.avifImage, ptr %66, i32 0, i32 18
  store i32 %65, ptr %67, align 4
  %68 = load ptr, ptr %3, align 8
  %69 = getelementptr inbounds nuw %struct.avifImage, ptr %68, i32 0, i32 21
  %70 = getelementptr inbounds nuw %struct.avifImageRotation, ptr %69, i32 0, i32 0
  store i8 2, ptr %70, align 8
  %71 = load ptr, ptr %3, align 8
  %72 = getelementptr inbounds nuw %struct.avifImage, ptr %71, i32 0, i32 22
  %73 = getelementptr inbounds nuw %struct.avifImageMirror, ptr %72, i32 0, i32 0
  store i8 0, ptr %73, align 1
  store i32 0, ptr %2, align 4
  br label %143

74:                                               ; preds = %32
  %75 = load i32, ptr %4, align 4
  %76 = or i32 %75, 8
  %77 = load ptr, ptr %3, align 8
  %78 = getelementptr inbounds nuw %struct.avifImage, ptr %77, i32 0, i32 18
  store i32 %76, ptr %78, align 4
  %79 = load ptr, ptr %3, align 8
  %80 = getelementptr inbounds nuw %struct.avifImage, ptr %79, i32 0, i32 21
  %81 = getelementptr inbounds nuw %struct.avifImageRotation, ptr %80, i32 0, i32 0
  store i8 0, ptr %81, align 8
  %82 = load ptr, ptr %3, align 8
  %83 = getelementptr inbounds nuw %struct.avifImage, ptr %82, i32 0, i32 22
  %84 = getelementptr inbounds nuw %struct.avifImageMirror, ptr %83, i32 0, i32 0
  store i8 0, ptr %84, align 1
  store i32 0, ptr %2, align 4
  br label %143

85:                                               ; preds = %32
  %86 = load i32, ptr %4, align 4
  %87 = or i32 %86, 4
  %88 = or i32 %87, 8
  %89 = load ptr, ptr %3, align 8
  %90 = getelementptr inbounds nuw %struct.avifImage, ptr %89, i32 0, i32 18
  store i32 %88, ptr %90, align 4
  %91 = load ptr, ptr %3, align 8
  %92 = getelementptr inbounds nuw %struct.avifImage, ptr %91, i32 0, i32 21
  %93 = getelementptr inbounds nuw %struct.avifImageRotation, ptr %92, i32 0, i32 0
  store i8 1, ptr %93, align 8
  %94 = load ptr, ptr %3, align 8
  %95 = getelementptr inbounds nuw %struct.avifImage, ptr %94, i32 0, i32 22
  %96 = getelementptr inbounds nuw %struct.avifImageMirror, ptr %95, i32 0, i32 0
  store i8 0, ptr %96, align 1
  store i32 0, ptr %2, align 4
  br label %143

97:                                               ; preds = %32
  %98 = load i32, ptr %4, align 4
  %99 = or i32 %98, 4
  %100 = load ptr, ptr %3, align 8
  %101 = getelementptr inbounds nuw %struct.avifImage, ptr %100, i32 0, i32 18
  store i32 %99, ptr %101, align 4
  %102 = load ptr, ptr %3, align 8
  %103 = getelementptr inbounds nuw %struct.avifImage, ptr %102, i32 0, i32 21
  %104 = getelementptr inbounds nuw %struct.avifImageRotation, ptr %103, i32 0, i32 0
  store i8 3, ptr %104, align 8
  %105 = load ptr, ptr %3, align 8
  %106 = getelementptr inbounds nuw %struct.avifImage, ptr %105, i32 0, i32 22
  %107 = getelementptr inbounds nuw %struct.avifImageMirror, ptr %106, i32 0, i32 0
  store i8 0, ptr %107, align 1
  store i32 0, ptr %2, align 4
  br label %143

108:                                              ; preds = %32
  %109 = load i32, ptr %4, align 4
  %110 = or i32 %109, 4
  %111 = or i32 %110, 8
  %112 = load ptr, ptr %3, align 8
  %113 = getelementptr inbounds nuw %struct.avifImage, ptr %112, i32 0, i32 18
  store i32 %111, ptr %113, align 4
  %114 = load ptr, ptr %3, align 8
  %115 = getelementptr inbounds nuw %struct.avifImage, ptr %114, i32 0, i32 21
  %116 = getelementptr inbounds nuw %struct.avifImageRotation, ptr %115, i32 0, i32 0
  store i8 3, ptr %116, align 8
  %117 = load ptr, ptr %3, align 8
  %118 = getelementptr inbounds nuw %struct.avifImage, ptr %117, i32 0, i32 22
  %119 = getelementptr inbounds nuw %struct.avifImageMirror, ptr %118, i32 0, i32 0
  store i8 0, ptr %119, align 1
  store i32 0, ptr %2, align 4
  br label %143

120:                                              ; preds = %32
  %121 = load i32, ptr %4, align 4
  %122 = or i32 %121, 4
  %123 = load ptr, ptr %3, align 8
  %124 = getelementptr inbounds nuw %struct.avifImage, ptr %123, i32 0, i32 18
  store i32 %122, ptr %124, align 4
  %125 = load ptr, ptr %3, align 8
  %126 = getelementptr inbounds nuw %struct.avifImage, ptr %125, i32 0, i32 21
  %127 = getelementptr inbounds nuw %struct.avifImageRotation, ptr %126, i32 0, i32 0
  store i8 1, ptr %127, align 8
  %128 = load ptr, ptr %3, align 8
  %129 = getelementptr inbounds nuw %struct.avifImage, ptr %128, i32 0, i32 22
  %130 = getelementptr inbounds nuw %struct.avifImageMirror, ptr %129, i32 0, i32 0
  store i8 0, ptr %130, align 1
  store i32 0, ptr %2, align 4
  br label %143

131:                                              ; preds = %32
  br label %132

132:                                              ; preds = %131
  br label %133

133:                                              ; preds = %132, %25
  %134 = load i32, ptr %4, align 4
  %135 = load ptr, ptr %3, align 8
  %136 = getelementptr inbounds nuw %struct.avifImage, ptr %135, i32 0, i32 18
  store i32 %134, ptr %136, align 4
  %137 = load ptr, ptr %3, align 8
  %138 = getelementptr inbounds nuw %struct.avifImage, ptr %137, i32 0, i32 21
  %139 = getelementptr inbounds nuw %struct.avifImageRotation, ptr %138, i32 0, i32 0
  store i8 0, ptr %139, align 8
  %140 = load ptr, ptr %3, align 8
  %141 = getelementptr inbounds nuw %struct.avifImage, ptr %140, i32 0, i32 22
  %142 = getelementptr inbounds nuw %struct.avifImageMirror, ptr %141, i32 0, i32 0
  store i8 0, ptr %142, align 1
  store i32 0, ptr %2, align 4
  br label %143

143:                                              ; preds = %133, %120, %108, %97, %85, %74, %63, %52, %42, %23
  %144 = load i32, ptr %2, align 4
  ret i32 %144
}