; Function Attrs: nounwind uwtable
define hidden range(i32 0, 18) i32 @avifImageExtractExifOrientationToIrotImir(ptr nocapture noundef %0) local_unnamed_addr #1 {
  %2 = alloca i64, align 8
  %3 = getelementptr inbounds nuw i8, ptr %0, i64 116
  %4 = load i32, ptr %3, align 4
  %5 = and i32 %4, -13
  %6 = getelementptr inbounds nuw i8, ptr %0, i64 168
  %7 = load ptr, ptr %6, align 8
  %8 = getelementptr inbounds i8, ptr %0, i64 176
  %9 = load i64, ptr %8, align 8
  %10 = call i32 @avifGetExifOrientationOffset(ptr noundef %7, i64 noundef %9, ptr noundef nonnull %2)
  %.not = icmp eq i32 %10, 0
  br i1 %.not, label %11, label %35

11:                                               ; preds = %1
  %12 = load i64, ptr %2, align 8
  %13 = load i64, ptr %8, align 8
  %14 = icmp ult i64 %12, %13
  br i1 %14, label %15, label %.sink.split

15:                                               ; preds = %11
  %16 = load ptr, ptr %6, align 8
  %17 = getelementptr inbounds i8, ptr %16, i64 %12
  %18 = load i8, ptr %17, align 1
  switch i8 %18, label %.sink.split [
    i8 8, label %31
    i8 2, label %19
    i8 3, label %21
    i8 4, label %23
    i8 5, label %25
    i8 6, label %27
    i8 7, label %29
  ]

19:                                               ; preds = %15
  %20 = or disjoint i32 %5, 8
  br label %.sink.split

21:                                               ; preds = %15
  %22 = or disjoint i32 %5, 4
  br label %.sink.split

23:                                               ; preds = %15
  %24 = or disjoint i32 %5, 8
  br label %.sink.split

25:                                               ; preds = %15
  %26 = or i32 %4, 12
  br label %.sink.split

27:                                               ; preds = %15
  %28 = or disjoint i32 %5, 4
  br label %.sink.split

29:                                               ; preds = %15
  %30 = or i32 %4, 12
  br label %.sink.split

31:                                               ; preds = %15
  %32 = or disjoint i32 %5, 4
  br label %.sink.split

.sink.split:                                      ; preds = %11, %15, %19, %21, %23, %25, %27, %29, %31
  %.sink49 = phi i32 [ %32, %31 ], [ %30, %29 ], [ %28, %27 ], [ %26, %25 ], [ %24, %23 ], [ %22, %21 ], [ %20, %19 ], [ %5, %15 ], [ %5, %11 ]
  %.sink47 = phi i8 [ 1, %31 ], [ 3, %29 ], [ 3, %27 ], [ 1, %25 ], [ 0, %23 ], [ 2, %21 ], [ 0, %19 ], [ 0, %15 ], [ 0, %11 ]
  %.sink = phi i8 [ 0, %31 ], [ 0, %29 ], [ 0, %27 ], [ 0, %25 ], [ 0, %23 ], [ 0, %21 ], [ 1, %19 ], [ 0, %15 ], [ 0, %11 ]
  store i32 %.sink49, ptr %3, align 4
  %33 = getelementptr inbounds nuw i8, ptr %0, i64 160
  store i8 %.sink47, ptr %33, align 8
  %34 = getelementptr inbounds nuw i8, ptr %0, i64 161
  store i8 %.sink, ptr %34, align 1
  br label %35

35:                                               ; preds = %.sink.split, %1
  ret i32 %10
}